; Function Attrs: null_pointer_is_valid sspstrong uwtable
define internal void @dissect_gtpv2_rfsp_index(ptr noundef %0, ptr readnone captures(none) %1, ptr noundef %2, ptr readnone captures(none) %3, i16 zeroext %4, i8 zeroext %5, i8 noundef zeroext %6, ptr readnone captures(none) %7) #1 {
  switch i8 %6, label %12 [
    i8 0, label %.sink.split
    i8 1, label %9
  ]

9:                                                ; preds = %8
  br label %.sink.split

.sink.split:                                      ; preds = %8, %9
  %hf_gtpv2_rfsp_inuse.sink = phi ptr [ @hf_gtpv2_rfsp_inuse, %9 ], [ @hf_gtpv2_subscriber_rfsp, %8 ]
  %10 = load i32, ptr %hf_gtpv2_rfsp_inuse.sink, align 4
  %11 = tail call ptr @proto_tree_add_item(ptr noundef %2, i32 noundef %10, ptr noundef %0, i32 noundef 0, i32 noundef 2, i32 noundef 0)
  br label %12

12:                                               ; preds = %.sink.split, %8
  ret void
}